Certificate:
    Data:
        Version: 1 (0x0)
        Serial Number: 2 (0x2)
        Signature Algorithm: sha256WithRSAEncryption
        Issuer: C=UA, O=Arest Inc., CN=Arest Sub CA/emailAddress=arest@arest-home.pp.ua
        Validity
            Not Before: Jan 15 11:45:44 2019 GMT
            Not After : Jan 12 11:45:44 2029 GMT
        Subject: C=UA, O=Arest Inc., CN=arest@arest-home.pp.ua/emailAddress=arest@arest-home.pp.ua
        Subject Public Key Info:
            Public Key Algorithm: rsaEncryption
                RSA Public-Key: (2048 bit)
                Modulus:
                    00:e4:31:78:4c:f1:fa:71:73:45:71:bb:01:cb:bc:
                    e1:51:a8:c7:12:20:d8:52:34:31:d5:1d:39:24:6c:
                    0d:aa:44:ea:86:10:07:9c:44:d3:ae:e9:fc:c3:95:
                    53:65:da:5b:e9:54:53:ed:a2:27:bc:ab:cc:30:37:
                    2b:70:ef:a1:c3:2e:13:d8:96:1e:2e:a6:75:fd:15:
                    f5:74:6c:6f:3d:1a:6a:7f:b7:ab:7d:a5:cd:c6:60:
                    fd:61:21:3e:63:1c:75:96:37:0a:d3:2b:5a:31:c6:
                    f4:0a:54:87:7f:b2:42:56:ad:b5:f0:00:54:b3:75:
                    97:08:ca:bd:7e:83:e1:6c:29:c8:65:b3:a4:67:eb:
                    4d:3f:b7:90:c7:5a:c5:e3:91:3d:82:75:ad:ca:94:
                    1e:85:6a:c4:4f:d6:af:f9:75:7a:54:a2:69:c5:1f:
                    5b:f8:b6:31:33:58:68:f8:04:74:d0:72:e1:b6:14:
                    31:e1:b3:0d:80:12:f8:07:5e:14:c3:2b:d0:c7:1f:
                    47:2b:0f:17:f5:81:e1:a2:fd:b4:27:04:2c:71:34:
                    c4:bd:67:3d:2f:d8:11:a4:b7:88:94:3b:9d:c5:73:
                    de:88:81:69:64:92:f8:75:62:e2:5f:83:06:6a:c0:
                    a5:ba:16:bc:fe:17:ec:cd:2a:05:be:81:a3:a8:e3:
                    31:07
                Exponent: 65537 (0x10001)
    Signature Algorithm: sha256WithRSAEncryption
         18:f7:83:4e:43:bb:93:0d:a5:01:7c:02:fd:db:30:28:95:c6:
         c9:69:91:b8:0d:3f:ae:f7:87:d3:c2:b5:77:36:4b:72:bb:44:
         6f:0b:4d:b3:fe:a0:ea:0c:f5:86:f6:b0:cb:e7:e9:cc:3c:ce:
         43:4c:8f:ab:3d:65:91:e3:95:fd:1f:2d:e9:c9:07:d7:9c:ea:
         ae:f3:94:1b:01:21:39:5d:63:26:c6:7f:14:f8:ae:bd:d1:6d:
         e1:5a:8c:c2:95:e3:d6:50:7b:d9:66:4e:1e:20:f1:3b:f7:32:
         c1:d4:77:de:9c:23:e8:3c:27:58:94:3c:96:c3:8d:83:c5:95:
         9e:80:c4:9e:0b:52:7d:1f:f9:62:47:4c:63:0b:6a:13:44:29:
         e4:8c:b8:cc:89:6a:80:26:c6:22:7b:75:00:d8:2c:df:80:24:
         0d:77:69:0b:61:a1:a6:b7:cb:b9:5f:b5:e7:bb:9a:c3:c3:82:
         bf:ce:43:e9:31:aa:07:5c:7f:e1:20:a9:77:61:ed:da:49:63:
         fb:00:40:bb:f5:2d:31:2d:1c:60:3e:76:59:d4:1f:11:c3:33:
         70:ba:5e:70:3b:00:c5:40:cc:e5:4c:55:59:cc:77:07:b0:91:
         24:22:be:2c:d0:28:51:ce:13:0d:0c:a1:9e:3f:0a:1c:1f:25:
         e4:c7:c0:57
-----BEGIN CERTIFICATE-----
MIIDPjCCAiYCAQIwDQYJKoZIhvcNAQELBQAwYDELMAkGA1UEBhMCVUExEzARBgNV
BAoMCkFyZXN0IEluYy4xFTATBgNVBAMMDEFyZXN0IFN1YiBDQTElMCMGCSqGSIb3
DQEJARYWYXJlc3RAYXJlc3QtaG9tZS5wcC51YTAeFw0xOTAxMTUxMTQ1NDRaFw0y
OTAxMTIxMTQ1NDRaMGoxCzAJBgNVBAYTAlVBMRMwEQYDVQQKDApBcmVzdCBJbmMu
MR8wHQYDVQQDDBZhcmVzdEBhcmVzdC1ob21lLnBwLnVhMSUwIwYJKoZIhvcNAQkB
FhZhcmVzdEBhcmVzdC1ob21lLnBwLnVhMIIBIjANBgkqhkiG9w0BAQEFAAOCAQ8A
MIIBCgKCAQEA5DF4TPH6cXNFcbsBy7zhUajHEiDYUjQx1R05JGwNqkTqhhAHnETT
run8w5VTZdpb6VRT7aInvKvMMDcrcO+hwy4T2JYeLqZ1/RX1dGxvPRpqf7erfaXN
xmD9YSE+Yxx1ljcK0ytaMcb0ClSHf7JCVq218ABUs3WXCMq9foPhbCnIZbOkZ+tN
P7eQx1rF45E9gnWtypQehWrET9av+XV6VKJpxR9b+LYxM1ho+AR00HLhthQx4bMN
gBL4B14UwyvQxx9HKw8X9YHhov20JwQscTTEvWc9L9gRpLeIlDudxXPeiIFpZJL4
dWLiX4MGasCluha8/hfszSoFvoGjqOMxBwIDAQABMA0GCSqGSIb3DQEBCwUAA4IB
AQAY94NOQ7uTDaUBfAL92zAolcbJaZG4DT+u94fTwrV3Nktyu0RvC02z/qDqDPWG
9rDL5+nMPM5DTI+rPWWR45X9Hy3pyQfXnOqu85QbASE5XWMmxn8U+K690W3hWozC
lePWUHvZZk4eIPE79zLB1HfenCPoPCdYlDyWw42DxZWegMSeC1J9H/liR0xjC2oT
RCnkjLjMiWqAJsYie3UA2CzfgCQNd2kLYaGmt8u5X7Xnu5rDw4K/zkPpMaoHXH/h
IKl3Ye3aSWP7AEC79S0xLRxgPnZZ1B8RwzNwul5wOwDFQMzlTFVZzHcHsJEkIr4s
0ChRzhMNDKGePwocHyXkx8BX
-----END CERTIFICATE-----
