Certificate:
    Data:
        Version: 1 (0x0)
        Serial Number: 1 (0x1)
        Signature Algorithm: sha256WithRSAEncryption
        Issuer: C=UA, O=Arest Inc., CN=Arest Root CA
        Validity
            Not Before: Jan 15 11:43:08 2019 GMT
            Not After : Jan 12 11:43:08 2029 GMT
        Subject: C=UA, O=Arest Inc., CN=Arest Sub CA/emailAddress=arest@arest-home.pp.ua
        Subject Public Key Info:
            Public Key Algorithm: rsaEncryption
                RSA Public-Key: (2048 bit)
                Modulus:
                    00:dd:f2:86:a2:cf:a5:f9:6e:32:4a:bd:5f:88:f8:
                    c5:75:da:4e:37:62:0b:85:96:26:9c:ad:ab:fb:36:
                    fc:7d:fa:bf:6f:0e:bf:16:21:5b:b0:33:20:dc:8c:
                    f6:71:8b:05:15:9a:be:90:7a:13:d3:93:d0:f6:19:
                    3a:5d:88:e9:d8:7e:6d:19:dc:3c:18:e7:b0:8c:b9:
                    a7:20:49:29:a8:6a:0a:8b:c5:a0:43:e4:24:52:af:
                    c5:ff:2d:87:96:1a:44:7b:dc:7d:6b:dc:f9:9e:8d:
                    d5:e3:b1:ea:0b:45:bd:b8:db:38:c1:d6:8d:93:fb:
                    db:c3:2e:7e:50:37:a9:e9:b3:50:a2:71:a1:3a:9b:
                    ba:34:41:64:b8:b4:7b:c8:70:45:64:f1:c2:63:b4:
                    4d:29:53:da:07:2a:6d:fa:af:c2:44:62:4d:d4:52:
                    ea:db:92:6b:e0:57:a1:d7:12:08:97:20:f0:42:65:
                    58:7c:fc:8d:bf:5b:2f:02:30:f3:88:60:81:0f:ae:
                    0a:da:21:91:d5:f9:03:cc:1c:a8:c8:10:2a:12:a4:
                    c7:f7:01:e0:32:2b:25:a7:44:15:60:09:d7:88:86:
                    ac:b0:4c:66:b6:2b:3c:80:d3:24:5c:e1:2f:8f:7a:
                    44:af:c4:70:bf:c6:3a:20:c8:0e:ad:93:d6:0c:45:
                    37:45
                Exponent: 65537 (0x10001)
    Signature Algorithm: sha256WithRSAEncryption
         12:88:51:f0:89:a1:0a:03:30:f4:00:fb:13:85:57:2c:04:47:
         b1:4a:d5:c2:c8:37:8b:7f:c0:1b:58:0c:a4:bc:4f:96:a4:5a:
         45:92:8e:46:af:94:02:5e:71:fe:a0:d9:10:d2:4b:a4:9c:b9:
         45:d4:cf:f5:cc:3f:fc:fa:46:0d:6c:15:58:8d:68:e3:57:82:
         4e:e0:32:da:48:77:b7:96:e7:ca:49:b2:d0:ed:ef:c4:6c:02:
         86:45:83:6f:b6:e5:89:0e:73:fd:8e:a5:4d:61:00:b4:0b:4e:
         e6:89:7e:9f:3f:5c:9c:3d:3b:87:00:a6:d6:88:35:76:e2:01:
         10:b7:4c:8c:51:07:23:94:f3:be:63:95:dd:57:78:32:28:81:
         37:bf:53:57:ac:d2:71:1d:29:71:9e:f3:41:c0:22:33:7e:da:
         ad:bc:24:a2:b7:6d:95:8b:7e:bc:46:14:26:49:f7:6f:07:a6:
         af:bc:cf:4f:45:ac:12:0f:ce:db:c1:cc:e4:1c:a7:06:11:59:
         bd:bc:d1:1d:1f:58:01:d1:67:5f:e8:77:e1:ab:62:09:38:af:
         27:be:07:24:b5:73:71:6c:1a:04:ed:33:68:87:d1:79:aa:bf:
         d5:c1:bc:c1:68:e2:28:c5:27:93:f9:d9:13:cb:54:0f:37:90:
         c2:ef:d0:81
-----BEGIN CERTIFICATE-----
MIIDDjCCAfYCAQEwDQYJKoZIhvcNAQELBQAwOjELMAkGA1UEBhMCVUExEzARBgNV
BAoMCkFyZXN0IEluYy4xFjAUBgNVBAMMDUFyZXN0IFJvb3QgQ0EwHhcNMTkwMTE1
MTE0MzA4WhcNMjkwMTEyMTE0MzA4WjBgMQswCQYDVQQGEwJVQTETMBEGA1UECgwK
QXJlc3QgSW5jLjEVMBMGA1UEAwwMQXJlc3QgU3ViIENBMSUwIwYJKoZIhvcNAQkB
FhZhcmVzdEBhcmVzdC1ob21lLnBwLnVhMIIBIjANBgkqhkiG9w0BAQEFAAOCAQ8A
MIIBCgKCAQEA3fKGos+l+W4ySr1fiPjFddpON2ILhZYmnK2r+zb8ffq/bw6/FiFb
sDMg3Iz2cYsFFZq+kHoT05PQ9hk6XYjp2H5tGdw8GOewjLmnIEkpqGoKi8WgQ+Qk
Uq/F/y2HlhpEe9x9a9z5no3V47HqC0W9uNs4wdaNk/vbwy5+UDep6bNQonGhOpu6
NEFkuLR7yHBFZPHCY7RNKVPaBypt+q/CRGJN1FLq25Jr4Feh1xIIlyDwQmVYfPyN
v1svAjDziGCBD64K2iGR1fkDzByoyBAqEqTH9wHgMislp0QVYAnXiIassExmtis8
gNMkXOEvj3pEr8Rwv8Y6IMgOrZPWDEU3RQIDAQABMA0GCSqGSIb3DQEBCwUAA4IB
AQASiFHwiaEKAzD0APsThVcsBEexStXCyDeLf8AbWAykvE+WpFpFko5Gr5QCXnH+
oNkQ0kuknLlF1M/1zD/8+kYNbBVYjWjjV4JO4DLaSHe3lufKSbLQ7e/EbAKGRYNv
tuWJDnP9jqVNYQC0C07miX6fP1ycPTuHAKbWiDV24gEQt0yMUQcjlPO+Y5XdV3gy
KIE3v1NXrNJxHSlxnvNBwCIzftqtvCSit22Vi368RhQmSfdvB6avvM9PRawSD87b
wczkHKcGEVm9vNEdH1gB0Wdf6Hfhq2IJOK8nvgcktXNxbBoE7TNoh9F5qr/VwbzB
aOIoxSeT+dkTy1QPN5DC79CB
-----END CERTIFICATE-----
